target datalayout = "e-m:e-p270:32:32-p271:32:32-p272:64:64-i64:64-i128:128-f80:128-n8:16:32:64-S128"
target triple = "x86_64-pc-linux-gnu"

%struct.H5C_t = type { i8, ptr, ptr, i32, ptr, i64, i64, ptr, i8, ptr, i8, i8, i32, i64, [6 x i32], [6 x i64], i64, [6 x i64], i64, [6 x i64], [65536 x ptr], i32, i64, ptr, ptr, i64, ptr, ptr, i8, i8, i32, i64, [6 x i32], [6 x i64], ptr, i32, ptr, i8, i32, i32, i64, ptr, ptr, i32, i64, ptr, ptr, i32, i64, ptr, ptr, i8, i8, i64, i8, i8, i8, i8, i8, i8, %struct.H5C_auto_size_ctl_t, i32, [10 x i8], [11 x i32], i32, i32, i32, [10 x %struct.H5C_cache_entry_t], i64, i64, %struct.H5C_cache_image_ctl_t, i8, i8, i8, i8, i64, i64, i64, i64, i64, i64, i64, i32, ptr, ptr, i8, i8, [32 x i8] }
%struct.H5C_auto_size_ctl_t = type { i32, ptr, i8, i64, double, i64, i64, i64, i32, double, double, i8, i64, i32, double, double, i32, double, double, i8, i64, i32, i8, double }
%struct.H5C_cache_entry_t = type { ptr, i64, i64, ptr, i8, ptr, i8, i8, i8, i8, i32, i8, i8, i8, i8, i8, i32, ptr, i32, i32, i32, i32, i32, i8, i8, ptr, ptr, ptr, ptr, ptr, ptr, i8, i32, i8, i64, ptr, i64, i64, i32, i8, i32, i32, i8, ptr, ptr, ptr }
%struct.H5C_cache_image_ctl_t = type { i32, i8, i8, i32, i32 }
%struct.H5F_t = type { ptr, ptr, ptr, ptr, i32, ptr, i8, i8, ptr, i32 }
%struct.H5F_shared_t = type { ptr, ptr, ptr, i8, i32, i32, %struct.H5F_mtab_t, ptr, i8, i8, i64, i32, i32, i64, i64, ptr, ptr, %struct.H5AC_cache_config_t, %struct.H5AC_cache_image_config_t, i8, i8, ptr, i64, i32, i8, i64, i64, double, i64, i64, i64, i32, i32, i32, i8, i32, ptr, ptr, ptr, ptr, i8, i8, i8, i64, i64, ptr, ptr, i32, i64, i8, i32, i8, i64, i8, [13 x i32], [13 x i64], [13 x ptr], i8, i64, i64, [7 x i32], [7 x i32], %struct.H5F_blk_aggr_t, %struct.H5F_blk_aggr_t, i64, i64, %struct.H5F_meta_accum_t, i32, i32, [30 x ptr], %struct.H5F_object_flush_t, i8, ptr }
%struct.H5F_mtab_t = type { i32, i32, ptr }
%struct.H5AC_cache_config_t = type { i32, i8, i8, i8, [1025 x i8], i8, i8, i64, double, i64, i64, i64, i32, double, double, i8, i64, i32, double, double, i32, double, double, i8, i64, i32, i8, double, i64, i32 }
%struct.H5AC_cache_image_config_t = type { i32, i8, i8, i32 }
%struct.H5F_blk_aggr_t = type { i64, i64, i64, i64, i64 }
%struct.H5F_meta_accum_t = type { ptr, i64, i64, i64, i64, i64, i8 }
%struct.H5F_object_flush_t = type { ptr, ptr }

@.str.1 = private unnamed_addr constant [97 x i8] c"generated/home/dtcxzyw/WorkSpace/Projects/compilers/llvm-opt-benchmark/bench/hdf5/hdf5/src/H5C.c\00", align 1
@H5E_CACHE_g = external global i64, align 8
@H5E_SYSTEM_g = external global i64, align 8
@H5E_CANTFLUSH_g = external global i64, align 8
@__func__.H5C_flush_cache = private unnamed_addr constant [16 x i8] c"H5C_flush_cache\00", align 1
@.str.12 = private unnamed_addr constant [24 x i8] c"flush invalidate failed\00", align 1
@.str.13 = private unnamed_addr constant [21 x i8] c"RD FSM settle failed\00", align 1
@.str.14 = private unnamed_addr constant [21 x i8] c"MD FSM settle failed\00", align 1
@.str.15 = private unnamed_addr constant [17 x i8] c"Unknown ring?!?!\00", align 1
@.str.16 = private unnamed_addr constant [18 x i8] c"flush ring failed\00", align 1

; Function Attrs: nounwind uwtable
define i32 @H5C_flush_cache(ptr noundef %0, i32 noundef %1) #0 {
  %3 = alloca ptr, align 8
  %4 = alloca i32, align 4
  %5 = alloca i32, align 4
  %6 = alloca ptr, align 8
  %7 = alloca i8, align 1
  %8 = alloca i32, align 4
  %9 = alloca i8, align 1
  store ptr %0, ptr %3, align 8
  store i32 %1, ptr %4, align 4
  store i32 0, ptr %8, align 4
  store i8 0, ptr %9, align 1
  %10 = load ptr, ptr %3, align 8
  %11 = getelementptr inbounds %struct.H5F_t, ptr %10, i32 0, i32 2
  %12 = load ptr, ptr %11, align 8
  %13 = getelementptr inbounds %struct.H5F_shared_t, ptr %12, i32 0, i32 16
  %14 = load ptr, ptr %13, align 8
  store ptr %14, ptr %6, align 8
  %15 = load i32, ptr %4, align 4
  %16 = and i32 %15, 16
  %17 = icmp ne i32 %16, 0
  %18 = zext i1 %17 to i8
  store i8 %18, ptr %7, align 1
  %19 = load ptr, ptr %6, align 8
  %20 = getelementptr inbounds %struct.H5C_t, ptr %19, i32 0, i32 0
  store i8 1, ptr %20, align 8
  %21 = load i8, ptr %7, align 1
  %22 = trunc i8 %21 to i1
  br i1 %22, label %23, label %44

23:                                               ; preds = %2
  %24 = load ptr, ptr %3, align 8
  %25 = load i32, ptr %4, align 4
  %26 = call i32 @H5C__flush_invalidate_cache(ptr noundef %24, i32 noundef %25)
  %27 = icmp slt i32 %26, 0
  br i1 %27, label %28, label %43

28:                                               ; preds = %23
  br label %29

29:                                               ; preds = %28
  br label %30

30:                                               ; preds = %29
  br label %31

31:                                               ; preds = %30
  %32 = load i64, ptr @H5E_CACHE_g, align 8
  %33 = load i64, ptr @H5E_CANTFLUSH_g, align 8
  %34 = call i32 (ptr, ptr, i32, i64, i64, ptr, ...) @H5E_printf_stack(ptr noundef @.str.1, ptr noundef @__func__.H5C_flush_cache, i32 noundef 667, i64 noundef %32, i64 noundef %33, ptr noundef @.str.12)
  br label %35

35:                                               ; preds = %31
  store i8 1, ptr %9, align 1
  %36 = load i8, ptr %9, align 1
  %37 = trunc i8 %36 to i1
  %38 = zext i1 %37 to i8
  store i8 %38, ptr %9, align 1
  br label %39

39:                                               ; preds = %35
  br label %40

40:                                               ; preds = %39
  store i32 -1, ptr %8, align 4
  br label %155

41:                                               ; No predecessors!
  br label %42

42:                                               ; preds = %41
  br label %43

43:                                               ; preds = %42, %23
  br label %154

44:                                               ; preds = %2
  store i32 1, ptr %5, align 4
  br label %45

45:                                               ; preds = %150, %44
  %46 = load i32, ptr %5, align 4
  %47 = icmp slt i32 %46, 6
  br i1 %47, label %48, label %153

48:                                               ; preds = %45
  %49 = load ptr, ptr %6, align 8
  %50 = getelementptr inbounds %struct.H5C_t, ptr %49, i32 0, i32 11
  %51 = load i8, ptr %50, align 1
  %52 = trunc i8 %51 to i1
  br i1 %52, label %53, label %129

53:                                               ; preds = %48
  %54 = load i32, ptr %5, align 4
  switch i32 %54, label %113 [
    i32 1, label %55
    i32 2, label %56
    i32 3, label %84
    i32 4, label %112
    i32 5, label %112
  ]

55:                                               ; preds = %53
  br label %128

56:                                               ; preds = %53
  %57 = load ptr, ptr %6, align 8
  %58 = getelementptr inbounds %struct.H5C_t, ptr %57, i32 0, i32 85
  %59 = load i8, ptr %58, align 8
  %60 = trunc i8 %59 to i1
  br i1 %60, label %83, label %61

61:                                               ; preds = %56
  %62 = load ptr, ptr %3, align 8
  %63 = load ptr, ptr %6, align 8
  %64 = getelementptr inbounds %struct.H5C_t, ptr %63, i32 0, i32 85
  %65 = call i32 @H5MF_settle_raw_data_fsm(ptr noundef %62, ptr noundef %64)
  %66 = icmp slt i32 %65, 0
  br i1 %66, label %67, label %82

67:                                               ; preds = %61
  br label %68

68:                                               ; preds = %67
  br label %69

69:                                               ; preds = %68
  br label %70

70:                                               ; preds = %69
  %71 = load i64, ptr @H5E_CACHE_g, align 8
  %72 = load i64, ptr @H5E_CANTFLUSH_g, align 8
  %73 = call i32 (ptr, ptr, i32, i64, i64, ptr, ...) @H5E_printf_stack(ptr noundef @.str.1, ptr noundef @__func__.H5C_flush_cache, i32 noundef 687, i64 noundef %71, i64 noundef %72, ptr noundef @.str.13)
  br label %74

74:                                               ; preds = %70
  store i8 1, ptr %9, align 1
  %75 = load i8, ptr %9, align 1
  %76 = trunc i8 %75 to i1
  %77 = zext i1 %76 to i8
  store i8 %77, ptr %9, align 1
  br label %78

78:                                               ; preds = %74
  br label %79

79:                                               ; preds = %78
  store i32 -1, ptr %8, align 4
  br label %155

80:                                               ; No predecessors!
  br label %81

81:                                               ; preds = %80
  br label %82

82:                                               ; preds = %81, %61
  br label %83

83:                                               ; preds = %82, %56
  br label %128

84:                                               ; preds = %53
  %85 = load ptr, ptr %6, align 8
  %86 = getelementptr inbounds %struct.H5C_t, ptr %85, i32 0, i32 86
  %87 = load i8, ptr %86, align 1
  %88 = trunc i8 %87 to i1
  br i1 %88, label %111, label %89

89:                                               ; preds = %84
  %90 = load ptr, ptr %3, align 8
  %91 = load ptr, ptr %6, align 8
  %92 = getelementptr inbounds %struct.H5C_t, ptr %91, i32 0, i32 86
  %93 = call i32 @H5MF_settle_meta_data_fsm(ptr noundef %90, ptr noundef %92)
  %94 = icmp slt i32 %93, 0
  br i1 %94, label %95, label %110

95:                                               ; preds = %89
  br label %96

96:                                               ; preds = %95
  br label %97

97:                                               ; preds = %96
  br label %98

98:                                               ; preds = %97
  %99 = load i64, ptr @H5E_CACHE_g, align 8
  %100 = load i64, ptr @H5E_CANTFLUSH_g, align 8
  %101 = call i32 (ptr, ptr, i32, i64, i64, ptr, ...) @H5E_printf_stack(ptr noundef @.str.1, ptr noundef @__func__.H5C_flush_cache, i32 noundef 694, i64 noundef %99, i64 noundef %100, ptr noundef @.str.14)
  br label %102

102:                                              ; preds = %98
  store i8 1, ptr %9, align 1
  %103 = load i8, ptr %9, align 1
  %104 = trunc i8 %103 to i1
  %105 = zext i1 %104 to i8
  store i8 %105, ptr %9, align 1
  br label %106

106:                                              ; preds = %102
  br label %107

107:                                              ; preds = %106
  store i32 -1, ptr %8, align 4
  br label %155

108:                                              ; No predecessors!
  br label %109

109:                                              ; preds = %108
  br label %110

110:                                              ; preds = %109, %89
  br label %111

111:                                              ; preds = %110, %84
  br label %128

112:                                              ; preds = %53, %53
  br label %128

113:                                              ; preds = %53
  br label %114

114:                                              ; preds = %113
  br label %115

115:                                              ; preds = %114
  br label %116

116:                                              ; preds = %115
  %117 = load i64, ptr @H5E_CACHE_g, align 8
  %118 = load i64, ptr @H5E_SYSTEM_g, align 8
  %119 = call i32 (ptr, ptr, i32, i64, i64, ptr, ...) @H5E_printf_stack(ptr noundef @.str.1, ptr noundef @__func__.H5C_flush_cache, i32 noundef 702, i64 noundef %117, i64 noundef %118, ptr noundef @.str.15)
  br label %120

120:                                              ; preds = %116
  store i8 1, ptr %9, align 1
  %121 = load i8, ptr %9, align 1
  %122 = trunc i8 %121 to i1
  %123 = zext i1 %122 to i8
  store i8 %123, ptr %9, align 1
  br label %124

124:                                              ; preds = %120
  br label %125

125:                                              ; preds = %124
  store i32 -1, ptr %8, align 4
  br label %155

126:                                              ; No predecessors!
  br label %127

127:                                              ; preds = %126
  br label %128

128:                                              ; preds = %127, %112, %111, %83, %55
  br label %129

129:                                              ; preds = %128, %48
  %130 = load ptr, ptr %3, align 8
  %131 = load i32, ptr %5, align 4
  %132 = load i32, ptr %4, align 4
  %133 = call i32 @H5C__flush_ring(ptr noundef %130, i32 noundef %131, i32 noundef %132)
  %134 = icmp slt i32 %133, 0
  br i1 %134, label %135, label %150

135:                                              ; preds = %129
  br label %136

136:                                              ; preds = %135
  br label %137

137:                                              ; preds = %136
  br label %138

138:                                              ; preds = %137
  %139 = load i64, ptr @H5E_CACHE_g, align 8
  %140 = load i64, ptr @H5E_CANTFLUSH_g, align 8
  %141 = call i32 (ptr, ptr, i32, i64, i64, ptr, ...) @H5E_printf_stack(ptr noundef @.str.1, ptr noundef @__func__.H5C_flush_cache, i32 noundef 708, i64 noundef %139, i64 noundef %140, ptr noundef @.str.16)
  br label %142

142:                                              ; preds = %138
  store i8 1, ptr %9, align 1
  %143 = load i8, ptr %9, align 1
  %144 = trunc i8 %143 to i1
  %145 = zext i1 %144 to i8
  store i8 %145, ptr %9, align 1
  br label %146

146:                                              ; preds = %142
  br label %147

147:                                              ; preds = %146
  store i32 -1, ptr %8, align 4
  br label %155

148:                                              ; No predecessors!
  br label %149

149:                                              ; preds = %148
  br label %150

150:                                              ; preds = %149, %129
  %151 = load i32, ptr %5, align 4
  %152 = add nsw i32 %151, 1
  store i32 %152, ptr %5, align 4
  br label %45

153:                                              ; preds = %45
  br label %154

154:                                              ; preds = %153, %43
  br label %155

155:                                              ; preds = %154, %147, %125, %107, %79, %40
  %156 = load ptr, ptr %6, align 8
  %157 = getelementptr inbounds %struct.H5C_t, ptr %156, i32 0, i32 0
  store i8 0, ptr %157, align 8
  %158 = load i32, ptr %8, align 4
  ret i32 %158
}