; Function Attrs: nounwind uwtable
define range(i32 -1, 1) i32 @H5C_flush_cache(ptr noundef %0, i32 noundef %1) local_unnamed_addr #0 {
  %3 = getelementptr inbounds i8, ptr %0, i64 16
  %4 = load ptr, ptr %3, align 8
  %5 = getelementptr inbounds i8, ptr %4, i64 112
  %6 = load ptr, ptr %5, align 8
  %7 = and i32 %1, 16
  %.not = icmp eq i32 %7, 0
  store i8 1, ptr %6, align 8
  br i1 %.not, label %.preheader, label %11

.preheader:                                       ; preds = %2
  %8 = getelementptr inbounds i8, ptr %6, i64 81
  %9 = getelementptr inbounds i8, ptr %6, i64 527721
  %10 = getelementptr inbounds i8, ptr %6, i64 527720
  br label %20

11:                                               ; preds = %2
  %12 = tail call i32 @H5C__flush_invalidate_cache(ptr noundef nonnull %0, i32 noundef %1) #8
  %13 = icmp slt i32 %12, 0
  br i1 %13, label %14, label %.loopexit

14:                                               ; preds = %11
  %15 = load i64, ptr @H5E_CACHE_g, align 8
  %16 = load i64, ptr @H5E_CANTFLUSH_g, align 8
  %17 = tail call i32 (ptr, ptr, i32, i64, i64, ptr, ...) @H5E_printf_stack(ptr noundef nonnull @.str.1, ptr noundef nonnull @__func__.H5C_flush_cache, i32 noundef 667, i64 noundef %15, i64 noundef %16, ptr noundef nonnull @.str.12) #8
  br label %.loopexit

18:                                               ; preds = %48
  %19 = add nuw nsw i32 %.02526, 1
  %exitcond.not = icmp eq i32 %19, 6
  br i1 %exitcond.not, label %.loopexit, label %20

20:                                               ; preds = %.preheader, %18
  %.02526 = phi i32 [ 1, %.preheader ], [ %19, %18 ]
  %21 = load i8, ptr %8, align 1
  %22 = trunc i8 %21 to i1
  br i1 %22, label %23, label %48

23:                                               ; preds = %20
  switch i32 %.02526, label %44 [
    i32 1, label %48
    i32 2, label %24
    i32 3, label %34
    i32 4, label %48
    i32 5, label %48
  ]

24:                                               ; preds = %23
  %25 = load i8, ptr %10, align 8
  %26 = trunc i8 %25 to i1
  br i1 %26, label %48, label %27

27:                                               ; preds = %24
  %28 = tail call i32 @H5MF_settle_raw_data_fsm(ptr noundef %0, ptr noundef nonnull %10) #8
  %29 = icmp slt i32 %28, 0
  br i1 %29, label %30, label %48

30:                                               ; preds = %27
  %31 = load i64, ptr @H5E_CACHE_g, align 8
  %32 = load i64, ptr @H5E_CANTFLUSH_g, align 8
  %33 = tail call i32 (ptr, ptr, i32, i64, i64, ptr, ...) @H5E_printf_stack(ptr noundef nonnull @.str.1, ptr noundef nonnull @__func__.H5C_flush_cache, i32 noundef 687, i64 noundef %31, i64 noundef %32, ptr noundef nonnull @.str.13) #8
  br label %.loopexit

34:                                               ; preds = %23
  %35 = load i8, ptr %9, align 1
  %36 = trunc i8 %35 to i1
  br i1 %36, label %48, label %37

37:                                               ; preds = %34
  %38 = tail call i32 @H5MF_settle_meta_data_fsm(ptr noundef %0, ptr noundef nonnull %9) #8
  %39 = icmp slt i32 %38, 0
  br i1 %39, label %40, label %48

40:                                               ; preds = %37
  %41 = load i64, ptr @H5E_CACHE_g, align 8
  %42 = load i64, ptr @H5E_CANTFLUSH_g, align 8
  %43 = tail call i32 (ptr, ptr, i32, i64, i64, ptr, ...) @H5E_printf_stack(ptr noundef nonnull @.str.1, ptr noundef nonnull @__func__.H5C_flush_cache, i32 noundef 694, i64 noundef %41, i64 noundef %42, ptr noundef nonnull @.str.14) #8
  br label %.loopexit

44:                                               ; preds = %23
  %45 = load i64, ptr @H5E_CACHE_g, align 8
  %46 = load i64, ptr @H5E_SYSTEM_g, align 8
  %47 = tail call i32 (ptr, ptr, i32, i64, i64, ptr, ...) @H5E_printf_stack(ptr noundef nonnull @.str.1, ptr noundef nonnull @__func__.H5C_flush_cache, i32 noundef 702, i64 noundef %45, i64 noundef %46, ptr noundef nonnull @.str.15) #8
  br label %.loopexit

48:                                               ; preds = %23, %27, %24, %37, %34, %23, %23, %20
  %49 = tail call i32 @H5C__flush_ring(ptr noundef %0, i32 noundef %.02526, i32 noundef %1) #8
  %50 = icmp slt i32 %49, 0
  br i1 %50, label %51, label %18

51:                                               ; preds = %48
  %52 = load i64, ptr @H5E_CACHE_g, align 8
  %53 = load i64, ptr @H5E_CANTFLUSH_g, align 8
  %54 = tail call i32 (ptr, ptr, i32, i64, i64, ptr, ...) @H5E_printf_stack(ptr noundef nonnull @.str.1, ptr noundef nonnull @__func__.H5C_flush_cache, i32 noundef 708, i64 noundef %52, i64 noundef %53, ptr noundef nonnull @.str.16) #8
  br label %.loopexit

.loopexit:                                        ; preds = %18, %11, %51, %44, %40, %30, %14
  %.0 = phi i32 [ -1, %14 ], [ 0, %11 ], [ -1, %44 ], [ -1, %51 ], [ -1, %40 ], [ -1, %30 ], [ 0, %18 ]
  store i8 0, ptr %6, align 8
  ret i32 %.0
}